target datalayout = "e-m:e-p270:32:32-p271:32:32-p272:64:64-i64:64-i128:128-f80:128-n8:16:32:64-S128"
target triple = "x86_64-pc-linux-gnu"

%struct.load_file_arg = type { i64, i64, i32, ptr, i64 }

@rb_stdin = external global i64, align 8

; Function Attrs: inlinehint nounwind sspstrong willreturn memory(none) uwtable
define internal zeroext i1 @RB_NIL_P(i64 noundef %0) #13 {
  %2 = alloca i64, align 8
  store i64 %0, ptr %2, align 8, !tbaa !42
  %3 = load i64, ptr %2, align 8, !tbaa !42
  %4 = icmp eq i64 %3, 4
  ret i1 %4
}

; Function Attrs: nounwind sspstrong uwtable
define internal i64 @restore_load_file(i64 noundef %0) #0 {
  %2 = alloca i64, align 8
  %3 = alloca ptr, align 8
  %4 = alloca i64, align 8
  store i64 %0, ptr %2, align 8, !tbaa !42
  call void @llvm.lifetime.start.p0(i64 8, ptr %3) #24
  %5 = load i64, ptr %2, align 8, !tbaa !42
  %6 = inttoptr i64 %5 to ptr
  store ptr %6, ptr %3, align 8, !tbaa !148
  call void @llvm.lifetime.start.p0(i64 8, ptr %4) #24
  %7 = load ptr, ptr %3, align 8, !tbaa !148
  %8 = getelementptr inbounds nuw %struct.load_file_arg, ptr %7, i32 0, i32 4
  %9 = load i64, ptr %8, align 8, !tbaa !69
  store i64 %9, ptr %4, align 8, !tbaa !42
  %10 = load i64, ptr %4, align 8, !tbaa !42
  %11 = call zeroext i1 @RB_NIL_P(i64 noundef %10) #27
  br i1 %11, label %19, label %12

12:                                               ; preds = %1
  %13 = load i64, ptr %4, align 8, !tbaa !42
  %14 = load i64, ptr @rb_stdin, align 8, !tbaa !42
  %15 = icmp ne i64 %13, %14
  br i1 %15, label %16, label %19

16:                                               ; preds = %12
  %17 = load i64, ptr %4, align 8, !tbaa !42
  %18 = call i64 @rb_io_close(i64 noundef %17)
  br label %19

19:                                               ; preds = %16, %12, %1
  call void @llvm.lifetime.end.p0(i64 8, ptr %4) #24
  call void @llvm.lifetime.end.p0(i64 8, ptr %3) #24
  ret i64 4
}