; Function Attrs: nounwind sspstrong uwtable
define internal noundef i64 @restore_load_file(i64 noundef %0) #0 {
  %2 = inttoptr i64 %0 to ptr
  %3 = getelementptr inbounds nuw i8, ptr %2, i64 32
  %4 = load i64, ptr %3, align 8, !tbaa !67
  %5 = icmp eq i64 %4, 4
  %6 = load i64, ptr @rb_stdin, align 8
  %.not = icmp eq i64 %4, %6
  %or.cond = select i1 %5, i1 true, i1 %.not
  br i1 %or.cond, label %9, label %7

7:                                                ; preds = %1
  %8 = tail call i64 @rb_io_close(i64 noundef %4) #25
  br label %9

9:                                                ; preds = %7, %1
  ret i64 4
}